Certificate:
    Data:
        Version: 3 (0x2)
        Serial Number: 792 (0x318)
        Signature Algorithm: sha1WithRSAEncryption
        Issuer: C=IT, O=IGI, CN=Test CA
        Validity
            Not Before: Mar 20 16:32:20 2018 GMT
            Not After : Mar 17 16:32:20 2028 GMT
        Subject: C=IT, O=IGI, CN=fe.cnaf.infn.it
        Subject Public Key Info:
            Public Key Algorithm: rsaEncryption
            RSA Public Key: (2048 bit)
                Modulus (2048 bit):
                    00:b0:5e:64:7c:03:1e:6b:aa:d9:f3:3a:9f:c6:36:
                    a5:df:45:09:26:f6:18:8f:7a:ef:dc:8e:30:18:b8:
                    c8:7b:f0:e0:3a:df:c3:01:13:b7:fc:15:f2:91:42:
                    48:c6:a0:06:18:46:c1:59:15:42:f8:17:74:c2:e7:
                    18:97:a8:65:29:10:64:3e:dd:48:15:76:59:85:17:
                    a8:7c:1f:1f:03:ac:83:93:0b:df:f9:ea:48:71:7b:
                    95:dd:74:20:7a:4c:f1:b0:74:66:45:b3:54:56:31:
                    81:f2:bd:49:a2:f3:f3:a8:ae:23:5e:ee:72:ac:45:
                    4e:32:70:b3:e1:52:45:38:96:7c:4c:ae:3f:01:37:
                    1b:aa:b0:7f:9f:5d:7a:26:59:e1:5c:66:81:de:ec:
                    ad:18:03:f6:ad:51:b8:cb:e9:e8:70:77:38:b6:d7:
                    12:57:ce:8d:10:52:be:cb:23:29:22:4b:d9:15:34:
                    d9:16:56:99:a8:f4:84:d0:43:45:a0:bd:b1:ee:11:
                    62:74:62:ca:5d:01:eb:e3:61:64:6f:a6:09:55:db:
                    d8:1e:14:40:49:e7:b3:74:36:d4:e2:0b:13:41:c4:
                    08:cb:e0:ad:8f:c5:7d:64:e2:98:80:dc:e2:a6:dd:
                    42:5a:d1:bf:57:bd:b1:9d:7c:65:5f:42:eb:c2:82:
                    e1:79
                Exponent: 65537 (0x10001)
        X509v3 extensions:
            X509v3 Basic Constraints: critical
                CA:FALSE
            X509v3 Subject Key Identifier: 
                A8:63:CF:FE:F4:5C:66:7D:2B:4D:0B:F1:F3:01:7B:17:8F:98:94:00
            X509v3 Key Usage: critical
                Digital Signature, Non Repudiation, Key Encipherment
            X509v3 Extended Key Usage: 
                TLS Web Server Authentication, TLS Web Client Authentication, Microsoft Server Gated Crypto, Netscape Server Gated Crypto, E-mail Protection
            X509v3 Authority Key Identifier: 
                keyid:91:77:36:7B:2E:B4:69:F3:27:EA:B7:F6:08:8B:4A:23:A2:11:49:C6

            X509v3 Subject Alternative Name: 
                DNS:fe.cnaf.infn.it
    Signature Algorithm: sha1WithRSAEncryption
        74:e5:9d:7d:e9:d1:fa:1e:8a:47:b6:0b:be:91:25:a7:8e:9a:
        e8:92:ca:bb:27:3f:75:44:8b:26:22:ca:c9:7e:93:46:e2:8f:
        b7:e3:08:f7:06:60:5e:a9:3e:7a:76:3a:cc:10:fb:ef:1a:82:
        23:1f:76:06:d4:00:f1:b6:1b:ca:05:81:e5:1e:bc:5b:62:f7:
        37:49:48:8f:d8:62:ef:5c:24:a7:b9:a2:52:9c:01:f2:3e:5f:
        f2:dd:c0:c4:71:83:57:f6:ce:79:d4:49:58:d3:6e:ab:b2:ed:
        9b:76:f2:40:cc:8a:25:b5:b8:43:9f:20:fe:c3:a1:52:a0:f2:
        84:de:df:61:61:59:4f:95:23:8c:dd:ff:89:2c:54:16:d2:16:
        78:ed:5a:37:5f:73:4d:27:2f:9f:e9:7b:8a:2b:f6:8b:48:5c:
        d8:22:c5:5e:89:a7:09:c5:1f:4b:1c:b4:4b:20:9c:0a:d3:a6:
        14:3a:09:67:75:74:70:c6:22:14:b3:27:db:73:3d:4b:4a:1a:
        d9:51:2a:9b:fd:70:56:11:e8:f2:b9:fd:30:8a:d5:b0:16:91:
        16:99:52:7e:48:ee:92:d3:ea:0d:87:09:c2:6b:4c:63:7d:30:
        bd:25:67:fd:33:cd:fd:9c:e9:ab:ec:9e:61:f1:d6:a9:4e:af:
        39:b4:b0:92
-----BEGIN CERTIFICATE-----
MIIDnDCCAoSgAwIBAgICAxgwDQYJKoZIhvcNAQEFBQAwLTELMAkGA1UEBhMCSVQx
DDAKBgNVBAoMA0lHSTEQMA4GA1UEAwwHVGVzdCBDQTAeFw0xODAzMjAxNjMyMjBa
Fw0yODAzMTcxNjMyMjBaMDUxCzAJBgNVBAYTAklUMQwwCgYDVQQKDANJR0kxGDAW
BgNVBAMMD2ZlLmNuYWYuaW5mbi5pdDCCASIwDQYJKoZIhvcNAQEBBQADggEPADCC
AQoCggEBALBeZHwDHmuq2fM6n8Y2pd9FCSb2GI9679yOMBi4yHvw4DrfwwETt/wV
8pFCSMagBhhGwVkVQvgXdMLnGJeoZSkQZD7dSBV2WYUXqHwfHwOsg5ML3/nqSHF7
ld10IHpM8bB0ZkWzVFYxgfK9SaLz86iuI17ucqxFTjJws+FSRTiWfEyuPwE3G6qw
f59deiZZ4Vxmgd7srRgD9q1RuMvp6HB3OLbXElfOjRBSvssjKSJL2RU02RZWmaj0
hNBDRaC9se4RYnRiyl0B6+NhZG+mCVXb2B4UQEnns3Q21OILE0HECMvgrY/FfWTi
mIDc4qbdQlrRv1e9sZ18ZV9C68KC4XkCAwEAAaOBvTCBujAMBgNVHRMBAf8EAjAA
MB0GA1UdDgQWBBSoY8/+9FxmfStNC/HzAXsXj5iUADAOBgNVHQ8BAf8EBAMCBeAw
PgYDVR0lBDcwNQYIKwYBBQUHAwEGCCsGAQUFBwMCBgorBgEEAYI3CgMDBglghkgB
hvhCBAEGCCsGAQUFBwMEMB8GA1UdIwQYMBaAFJF3NnsutGnzJ+q39giLSiOiEUnG
MBoGA1UdEQQTMBGCD2ZlLmNuYWYuaW5mbi5pdDANBgkqhkiG9w0BAQUFAAOCAQEA
dOWdfenR+h6KR7YLvpElp46a6JLKuyc/dUSLJiLKyX6TRuKPt+MI9wZgXqk+enY6
zBD77xqCIx92BtQA8bYbygWB5R68W2L3N0lIj9hi71wkp7miUpwB8j5f8t3AxHGD
V/bOedRJWNNuq7Ltm3byQMyKJbW4Q58g/sOhUqDyhN7fYWFZT5UjjN3/iSxUFtIW
eO1aN19zTScvn+l7iiv2i0hc2CLFXomnCcUfSxy0SyCcCtOmFDoJZ3V0cMYiFLMn
23M9S0oa2VEqm/1wVhHo8rn9MIrVsBaRFplSfkjuktPqDYcJwmtMY30wvSVn/TPN
/Zzpq+yeYfHWqU6vObSwkg==
-----END CERTIFICATE-----
